target datalayout = "e-m:e-p270:32:32-p271:32:32-p272:64:64-i64:64-i128:128-f80:128-n8:16:32:64-S128"
target triple = "x86_64-pc-linux-gnu"

%struct.conf_value_st = type { ptr, ptr, ptr }

@.str.4 = private unnamed_addr constant [6 x i8] c"email\00", align 1
@.str.5 = private unnamed_addr constant [4 x i8] c"DNS\00", align 1
@.str.6 = private unnamed_addr constant [4 x i8] c"URI\00", align 1
@.str.25 = private unnamed_addr constant [126 x i8] c"generated/home/dtcxzyw/WorkSpace/Projects/compilers/llvm-opt-benchmark/bench/libquic/libquic/boringssl/crypto/x509v3/v3_alt.c\00", align 1
@.str.27 = private unnamed_addr constant [4 x i8] c"RID\00", align 1
@.str.28 = private unnamed_addr constant [3 x i8] c"IP\00", align 1
@.str.29 = private unnamed_addr constant [8 x i8] c"dirName\00", align 1
@.str.30 = private unnamed_addr constant [10 x i8] c"otherName\00", align 1
@.str.31 = private unnamed_addr constant [6 x i8] c"name=\00", align 1

; Function Attrs: nounwind uwtable
define hidden ptr @v2i_GENERAL_NAME_ex(ptr noundef %0, ptr noundef %1, ptr noundef %2, ptr noundef %3, i32 noundef %4) #0 {
  %6 = alloca ptr, align 8
  %7 = alloca ptr, align 8
  %8 = alloca ptr, align 8
  %9 = alloca ptr, align 8
  %10 = alloca ptr, align 8
  %11 = alloca i32, align 4
  %12 = alloca i32, align 4
  %13 = alloca ptr, align 8
  %14 = alloca ptr, align 8
  %15 = alloca i32, align 4
  store ptr %0, ptr %7, align 8, !tbaa !17
  store ptr %1, ptr %8, align 8, !tbaa !6
  store ptr %2, ptr %9, align 8, !tbaa !21
  store ptr %3, ptr %10, align 8, !tbaa !23
  store i32 %4, ptr %11, align 4, !tbaa !39
  call void @llvm.lifetime.start.p0(i64 4, ptr %12) #6
  call void @llvm.lifetime.start.p0(i64 8, ptr %13) #6
  call void @llvm.lifetime.start.p0(i64 8, ptr %14) #6
  %16 = load ptr, ptr %10, align 8, !tbaa !23
  %17 = getelementptr inbounds nuw %struct.conf_value_st, ptr %16, i32 0, i32 1
  %18 = load ptr, ptr %17, align 8, !tbaa !25
  store ptr %18, ptr %13, align 8, !tbaa !37
  %19 = load ptr, ptr %10, align 8, !tbaa !23
  %20 = getelementptr inbounds nuw %struct.conf_value_st, ptr %19, i32 0, i32 2
  %21 = load ptr, ptr %20, align 8, !tbaa !28
  store ptr %21, ptr %14, align 8, !tbaa !37
  %22 = load ptr, ptr %14, align 8, !tbaa !37
  %23 = icmp ne ptr %22, null
  br i1 %23, label %25, label %24

24:                                               ; preds = %5
  call void @ERR_put_error(i32 noundef 20, i32 noundef 0, i32 noundef 137, ptr noundef @.str.25, i32 noundef 534)
  store ptr null, ptr %6, align 8
  store i32 1, ptr %15, align 4
  br label %76

25:                                               ; preds = %5
  %26 = load ptr, ptr %13, align 8, !tbaa !37
  %27 = call i32 @name_cmp(ptr noundef %26, ptr noundef @.str.4)
  %28 = icmp ne i32 %27, 0
  br i1 %28, label %30, label %29

29:                                               ; preds = %25
  store i32 1, ptr %12, align 4, !tbaa !39
  br label %68

30:                                               ; preds = %25
  %31 = load ptr, ptr %13, align 8, !tbaa !37
  %32 = call i32 @name_cmp(ptr noundef %31, ptr noundef @.str.6)
  %33 = icmp ne i32 %32, 0
  br i1 %33, label %35, label %34

34:                                               ; preds = %30
  store i32 6, ptr %12, align 4, !tbaa !39
  br label %67

35:                                               ; preds = %30
  %36 = load ptr, ptr %13, align 8, !tbaa !37
  %37 = call i32 @name_cmp(ptr noundef %36, ptr noundef @.str.5)
  %38 = icmp ne i32 %37, 0
  br i1 %38, label %40, label %39

39:                                               ; preds = %35
  store i32 2, ptr %12, align 4, !tbaa !39
  br label %66

40:                                               ; preds = %35
  %41 = load ptr, ptr %13, align 8, !tbaa !37
  %42 = call i32 @name_cmp(ptr noundef %41, ptr noundef @.str.27)
  %43 = icmp ne i32 %42, 0
  br i1 %43, label %45, label %44

44:                                               ; preds = %40
  store i32 8, ptr %12, align 4, !tbaa !39
  br label %65

45:                                               ; preds = %40
  %46 = load ptr, ptr %13, align 8, !tbaa !37
  %47 = call i32 @name_cmp(ptr noundef %46, ptr noundef @.str.28)
  %48 = icmp ne i32 %47, 0
  br i1 %48, label %50, label %49

49:                                               ; preds = %45
  store i32 7, ptr %12, align 4, !tbaa !39
  br label %64

50:                                               ; preds = %45
  %51 = load ptr, ptr %13, align 8, !tbaa !37
  %52 = call i32 @name_cmp(ptr noundef %51, ptr noundef @.str.29)
  %53 = icmp ne i32 %52, 0
  br i1 %53, label %55, label %54

54:                                               ; preds = %50
  store i32 4, ptr %12, align 4, !tbaa !39
  br label %63

55:                                               ; preds = %50
  %56 = load ptr, ptr %13, align 8, !tbaa !37
  %57 = call i32 @name_cmp(ptr noundef %56, ptr noundef @.str.30)
  %58 = icmp ne i32 %57, 0
  br i1 %58, label %60, label %59

59:                                               ; preds = %55
  store i32 0, ptr %12, align 4, !tbaa !39
  br label %62

60:                                               ; preds = %55
  call void @ERR_put_error(i32 noundef 20, i32 noundef 0, i32 noundef 160, ptr noundef @.str.25, i32 noundef 553)
  %61 = load ptr, ptr %13, align 8, !tbaa !37
  call void (i32, ...) @ERR_add_error_data(i32 noundef 2, ptr noundef @.str.31, ptr noundef %61)
  store ptr null, ptr %6, align 8
  store i32 1, ptr %15, align 4
  br label %76

62:                                               ; preds = %59
  br label %63

63:                                               ; preds = %62, %54
  br label %64

64:                                               ; preds = %63, %49
  br label %65

65:                                               ; preds = %64, %44
  br label %66

66:                                               ; preds = %65, %39
  br label %67

67:                                               ; preds = %66, %34
  br label %68

68:                                               ; preds = %67, %29
  %69 = load ptr, ptr %7, align 8, !tbaa !17
  %70 = load ptr, ptr %8, align 8, !tbaa !6
  %71 = load ptr, ptr %9, align 8, !tbaa !21
  %72 = load i32, ptr %12, align 4, !tbaa !39
  %73 = load ptr, ptr %14, align 8, !tbaa !37
  %74 = load i32, ptr %11, align 4, !tbaa !39
  %75 = call ptr @a2i_GENERAL_NAME(ptr noundef %69, ptr noundef %70, ptr noundef %71, i32 noundef %72, ptr noundef %73, i32 noundef %74)
  store ptr %75, ptr %6, align 8
  store i32 1, ptr %15, align 4
  br label %76

76:                                               ; preds = %68, %60, %24
  call void @llvm.lifetime.end.p0(i64 8, ptr %14) #6
  call void @llvm.lifetime.end.p0(i64 8, ptr %13) #6
  call void @llvm.lifetime.end.p0(i64 4, ptr %12) #6
  %77 = load ptr, ptr %6, align 8
  ret ptr %77
}